target datalayout = "e-m:e-p270:32:32-p271:32:32-p272:64:64-i64:64-i128:128-f80:128-n8:16:32:64-S128"
target triple = "x86_64-unknown-linux-gnu"

%"class.facebook::velox::HashStringAllocator::Header" = type { i32 }
%"struct.facebook::velox::HashStringAllocator::Position" = type { ptr, ptr }

; Function Attrs: mustprogress nounwind uwtable
define linkonce_odr noundef ptr @_ZN8facebook5velox19HashStringAllocator6Header3endEv(ptr noundef nonnull align 4 dereferenceable(4) %this) #2 comdat align 2 {
entry:
  %this.addr = alloca ptr, align 8
  store ptr %this, ptr %this.addr, align 8
  %this1 = load ptr, ptr %this.addr, align 8
  %call = call noundef ptr @_ZN8facebook5velox19HashStringAllocator6Header5beginEv(ptr noundef nonnull align 4 dereferenceable(4) %this1)
  %call2 = call noundef i32 @_ZNK8facebook5velox19HashStringAllocator6Header4sizeEv(ptr noundef nonnull align 4 dereferenceable(4) %this1)
  %idx.ext = sext i32 %call2 to i64
  %add.ptr = getelementptr inbounds i8, ptr %call, i64 %idx.ext
  ret ptr %add.ptr
}

; Function Attrs: mustprogress nounwind uwtable
define linkonce_odr noundef i32 @_ZNK8facebook5velox19HashStringAllocator6Header4sizeEv(ptr noundef nonnull align 4 dereferenceable(4) %this) #2 comdat align 2 {
entry:
  %this.addr = alloca ptr, align 8
  store ptr %this, ptr %this.addr, align 8
  %this1 = load ptr, ptr %this.addr, align 8
  %data_ = getelementptr inbounds %"class.facebook::velox::HashStringAllocator::Header", ptr %this1, i32 0, i32 0
  %0 = load i32, ptr %data_, align 4
  %and = and i32 %0, 536870911
  ret i32 %and
}

; Function Attrs: mustprogress nounwind uwtable
define linkonce_odr noundef ptr @_ZN8facebook5velox19HashStringAllocator6Header5beginEv(ptr noundef nonnull align 4 dereferenceable(4) %this) #2 comdat align 2 {
entry:
  %this.addr = alloca ptr, align 8
  store ptr %this, ptr %this.addr, align 8
  %this1 = load ptr, ptr %this.addr, align 8
  %add.ptr = getelementptr inbounds %"class.facebook::velox::HashStringAllocator::Header", ptr %this1, i64 1
  ret ptr %add.ptr
}

; Function Attrs: mustprogress uwtable
define linkonce_odr noundef ptr @_ZN8facebook5velox19HashStringAllocator6Header13nextContinuedEv(ptr noundef nonnull align 4 dereferenceable(4) %this) #0 comdat align 2 {
entry:
  %this.addr = alloca ptr, align 8
  store ptr %this, ptr %this.addr, align 8
  %this1 = load ptr, ptr %this.addr, align 8
  %call = call noundef ptr @_ZN8facebook5velox19HashStringAllocator6Header3endEv(ptr noundef nonnull align 4 dereferenceable(4) %this1)
  %add.ptr = getelementptr inbounds i8, ptr %call, i64 -8
  %0 = load ptr, ptr %add.ptr, align 8
  ret ptr %0
}

; Function Attrs: mustprogress nounwind uwtable
define linkonce_odr noundef zeroext i1 @_ZNK8facebook5velox19HashStringAllocator6Header11isContinuedEv(ptr noundef nonnull align 4 dereferenceable(4) %this) #2 comdat align 2 {
entry:
  %this.addr = alloca ptr, align 8
  store ptr %this, ptr %this.addr, align 8
  %this1 = load ptr, ptr %this.addr, align 8
  %data_ = getelementptr inbounds %"class.facebook::velox::HashStringAllocator::Header", ptr %this1, i32 0, i32 0
  %0 = load i32, ptr %data_, align 4
  %and = and i32 %0, 1073741824
  %cmp = icmp ne i32 %and, 0
  ret i1 %cmp
}

; Function Attrs: mustprogress nounwind uwtable
define linkonce_odr noundef i32 @_ZNK8facebook5velox19HashStringAllocator6Header10usableSizeEv(ptr noundef nonnull align 4 dereferenceable(4) %this) #2 comdat align 2 {
entry:
  %this.addr = alloca ptr, align 8
  store ptr %this, ptr %this.addr, align 8
  %this1 = load ptr, ptr %this.addr, align 8
  %call = call noundef zeroext i1 @_ZNK8facebook5velox19HashStringAllocator6Header11isContinuedEv(ptr noundef nonnull align 4 dereferenceable(4) %this1)
  br i1 %call, label %cond.true, label %cond.false

cond.true:                                        ; preds = %entry
  %call2 = call noundef i32 @_ZNK8facebook5velox19HashStringAllocator6Header4sizeEv(ptr noundef nonnull align 4 dereferenceable(4) %this1)
  %sub = sub i32 %call2, 8
  br label %cond.end

cond.false:                                       ; preds = %entry
  %call3 = call noundef i32 @_ZNK8facebook5velox19HashStringAllocator6Header4sizeEv(ptr noundef nonnull align 4 dereferenceable(4) %this1)
  br label %cond.end

cond.end:                                         ; preds = %cond.false, %cond.true
  %cond = phi i32 [ %sub, %cond.true ], [ %call3, %cond.false ]
  ret i32 %cond
}

; Function Attrs: mustprogress nounwind uwtable
define linkonce_odr noundef i32 @_ZNK8facebook5velox19HashStringAllocator8Position6offsetEv(ptr noundef nonnull align 8 dereferenceable(16) %this) #2 comdat align 2 {
entry:
  %this.addr = alloca ptr, align 8
  store ptr %this, ptr %this.addr, align 8
  %this1 = load ptr, ptr %this.addr, align 8
  %position = getelementptr inbounds %"struct.facebook::velox::HashStringAllocator::Position", ptr %this1, i32 0, i32 1
  %0 = load ptr, ptr %position, align 8
  %header = getelementptr inbounds %"struct.facebook::velox::HashStringAllocator::Position", ptr %this1, i32 0, i32 0
  %1 = load ptr, ptr %header, align 8
  %call = call noundef ptr @_ZN8facebook5velox19HashStringAllocator6Header5beginEv(ptr noundef nonnull align 4 dereferenceable(4) %1)
  %sub.ptr.lhs.cast = ptrtoint ptr %0 to i64
  %sub.ptr.rhs.cast = ptrtoint ptr %call to i64
  %sub.ptr.sub = sub i64 %sub.ptr.lhs.cast, %sub.ptr.rhs.cast
  %conv = trunc i64 %sub.ptr.sub to i32
  ret i32 %conv
}

; Function Attrs: mustprogress uwtable
define noundef i64 @_ZN8facebook5velox19HashStringAllocator9availableERKNS1_8PositionE(ptr noundef nonnull align 8 dereferenceable(16) %position) #0 align 2 {
entry:
  %position.addr = alloca ptr, align 8
  %header = alloca ptr, align 8
  %startOffset = alloca i32, align 4
  %size = alloca i64, align 8
  store ptr %position, ptr %position.addr, align 8
  %0 = load ptr, ptr %position.addr, align 8
  %header1 = getelementptr inbounds %"struct.facebook::velox::HashStringAllocator::Position", ptr %0, i32 0, i32 0
  %1 = load ptr, ptr %header1, align 8
  store ptr %1, ptr %header, align 8
  %2 = load ptr, ptr %position.addr, align 8
  %call = call noundef i32 @_ZNK8facebook5velox19HashStringAllocator8Position6offsetEv(ptr noundef nonnull align 8 dereferenceable(16) %2)
  store i32 %call, ptr %startOffset, align 4
  %3 = load i32, ptr %startOffset, align 4
  %sub = sub nsw i32 0, %3
  %conv = sext i32 %sub to i64
  store i64 %conv, ptr %size, align 8
  br label %for.cond

for.cond:                                         ; preds = %if.end, %entry
  %4 = load ptr, ptr %header, align 8
  %call2 = call noundef i32 @_ZNK8facebook5velox19HashStringAllocator6Header10usableSizeEv(ptr noundef nonnull align 4 dereferenceable(4) %4)
  %conv3 = sext i32 %call2 to i64
  %5 = load i64, ptr %size, align 8
  %add = add nsw i64 %5, %conv3
  store i64 %add, ptr %size, align 8
  %6 = load ptr, ptr %header, align 8
  %call4 = call noundef zeroext i1 @_ZNK8facebook5velox19HashStringAllocator6Header11isContinuedEv(ptr noundef nonnull align 4 dereferenceable(4) %6)
  br i1 %call4, label %if.end, label %if.then

if.then:                                          ; preds = %for.cond
  %7 = load i64, ptr %size, align 8
  ret i64 %7

if.end:                                           ; preds = %for.cond
  %8 = load ptr, ptr %header, align 8
  %call5 = call noundef ptr @_ZN8facebook5velox19HashStringAllocator6Header13nextContinuedEv(ptr noundef nonnull align 4 dereferenceable(4) %8)
  store ptr %call5, ptr %header, align 8
  br label %for.cond, !llvm.loop !15
}