; Function Attrs: mustprogress nofree norecurse nosync nounwind willreturn memory(read, inaccessiblemem: none) uwtable
define noundef i64 @_ZN8facebook5velox19HashStringAllocator9availableERKNS1_8PositionE(ptr nocapture noundef nonnull readonly align 8 dereferenceable(16) %position) local_unnamed_addr #11 align 2 {
entry:
  %0 = load ptr, ptr %position, align 8
  %position.i = getelementptr inbounds i8, ptr %position, i64 8
  %1 = load ptr, ptr %position.i, align 8
  %add.ptr.i.i = getelementptr inbounds i8, ptr %0, i64 4
  %sub.ptr.lhs.cast.i = ptrtoint ptr %1 to i64
  %sub.ptr.rhs.cast.i = ptrtoint ptr %add.ptr.i.i to i64
  %sub.ptr.sub.i.neg = sub i64 %sub.ptr.rhs.cast.i, %sub.ptr.lhs.cast.i
  %sext = shl i64 %sub.ptr.sub.i.neg, 32
  %conv = ashr exact i64 %sext, 32
  %2 = load i32, ptr %0, align 4
  %and.i.i6 = and i32 %2, 1073741824
  %cmp.i.not.i7 = icmp eq i32 %and.i.i6, 0
  %and.i1.i8 = and i32 %2, 536870911
  %sub.i9 = add nsw i32 %and.i1.i8, -8
  %cond.i10 = select i1 %cmp.i.not.i7, i32 %and.i1.i8, i32 %sub.i9
  %conv311 = sext i32 %cond.i10 to i64
  %add12 = add nsw i64 %conv, %conv311
  br i1 %cmp.i.not.i7, label %if.then, label %if.end

if.then:                                          ; preds = %if.end, %entry
  %add.lcssa = phi i64 [ %add12, %entry ], [ %add, %if.end ]
  ret i64 %add.lcssa

if.end:                                           ; preds = %entry, %if.end
  %add16 = phi i64 [ %add, %if.end ], [ %add12, %entry ]
  %and.i1.i15 = phi i32 [ %and.i1.i, %if.end ], [ %and.i1.i8, %entry ]
  %header.014 = phi ptr [ %3, %if.end ], [ %0, %entry ]
  %add.ptr.i.i.i = getelementptr inbounds i8, ptr %header.014, i64 4
  %idx.ext.i.i = zext nneg i32 %and.i1.i15 to i64
  %add.ptr.i.i5 = getelementptr inbounds i8, ptr %add.ptr.i.i.i, i64 %idx.ext.i.i
  %add.ptr.i = getelementptr inbounds i8, ptr %add.ptr.i.i5, i64 -8
  %3 = load ptr, ptr %add.ptr.i, align 8
  %4 = load i32, ptr %3, align 4
  %and.i.i = and i32 %4, 1073741824
  %cmp.i.not.i = icmp eq i32 %and.i.i, 0
  %and.i1.i = and i32 %4, 536870911
  %sub.i = add nsw i32 %and.i1.i, -8
  %cond.i = select i1 %cmp.i.not.i, i32 %and.i1.i, i32 %sub.i
  %conv3 = sext i32 %cond.i to i64
  %add = add nsw i64 %add16, %conv3
  br i1 %cmp.i.not.i, label %if.then, label %if.end, !llvm.loop !35
}